target datalayout = "e-m:e-p270:32:32-p271:32:32-p272:64:64-i64:64-i128:128-f80:128-n8:16:32:64-S128"
target triple = "x86_64-pc-linux-gnu"

%struct._address = type { i32, i32, ptr, ptr }

@ett_lnet_nid = internal global i32 0, align 4
@hf_lnet_nid_addr = internal global i32 0, align 4
@hf_lnet_nid_interface = internal global i32 0, align 4
@hf_lnet_nid_lnet_type = internal global i32 0, align 4
@.str = private unnamed_addr constant [10 x i8] c": %s@%s%d\00", align 1
@.str.1 = private unnamed_addr constant [6 x i8] c"E(%d)\00", align 1

; Function Attrs: inlinehint nounwind null_pointer_is_valid sspstrong uwtable
define internal void @set_address(ptr noundef %0, i32 noundef %1, i32 noundef %2, ptr noundef %3) #3 {
  %5 = alloca ptr, align 8
  %6 = alloca i32, align 4
  %7 = alloca i32, align 4
  %8 = alloca ptr, align 8
  store ptr %0, ptr %5, align 8
  store i32 %1, ptr %6, align 4
  store i32 %2, ptr %7, align 4
  store ptr %3, ptr %8, align 8
  %9 = load i32, ptr %7, align 4
  %10 = icmp eq i32 %9, 0
  br i1 %10, label %11, label %14

11:                                               ; preds = %4
  br label %12

12:                                               ; preds = %11
  br label %13

13:                                               ; preds = %12
  br label %19

14:                                               ; preds = %4
  br label %15

15:                                               ; preds = %14
  br label %16

16:                                               ; preds = %15
  br label %17

17:                                               ; preds = %16
  br label %18

18:                                               ; preds = %17
  br label %19

19:                                               ; preds = %18, %13
  %20 = load i32, ptr %6, align 4
  %21 = load ptr, ptr %5, align 8
  %22 = getelementptr inbounds nuw %struct._address, ptr %21, i32 0, i32 0
  store i32 %20, ptr %22, align 8
  %23 = load i32, ptr %7, align 4
  %24 = load ptr, ptr %5, align 8
  %25 = getelementptr inbounds nuw %struct._address, ptr %24, i32 0, i32 1
  store i32 %23, ptr %25, align 4
  %26 = load ptr, ptr %8, align 8
  %27 = load ptr, ptr %5, align 8
  %28 = getelementptr inbounds nuw %struct._address, ptr %27, i32 0, i32 2
  store ptr %26, ptr %28, align 8
  %29 = load ptr, ptr %5, align 8
  %30 = getelementptr inbounds nuw %struct._address, ptr %29, i32 0, i32 3
  store ptr null, ptr %30, align 8
  ret void
}

; Function Attrs: null_pointer_is_valid sspstrong uwtable
define hidden i32 @lnet_dissect_struct_nid(ptr noundef %0, ptr noundef %1, i32 noundef %2, i32 noundef %3) #0 {
  %5 = alloca ptr, align 8
  %6 = alloca ptr, align 8
  %7 = alloca i32, align 4
  %8 = alloca i32, align 4
  %9 = alloca ptr, align 8
  %10 = alloca ptr, align 8
  %11 = alloca i32, align 4
  %12 = alloca i32, align 4
  %13 = alloca i32, align 4
  %14 = alloca %struct._address, align 8
  store ptr %0, ptr %5, align 8
  store ptr %1, ptr %6, align 8
  store i32 %2, ptr %7, align 4
  store i32 %3, ptr %8, align 4
  call void @llvm.lifetime.start.p0(i64 8, ptr %9) #6
  call void @llvm.lifetime.start.p0(i64 8, ptr %10) #6
  call void @llvm.lifetime.start.p0(i64 4, ptr %11) #6
  call void @llvm.lifetime.start.p0(i64 4, ptr %12) #6
  call void @llvm.lifetime.start.p0(i64 4, ptr %13) #6
  %15 = load ptr, ptr %6, align 8
  %16 = load i32, ptr %8, align 4
  %17 = load ptr, ptr %5, align 8
  %18 = load i32, ptr %7, align 4
  %19 = call ptr @proto_tree_add_item(ptr noundef %15, i32 noundef %16, ptr noundef %17, i32 noundef %18, i32 noundef 8, i32 noundef 0)
  store ptr %19, ptr %10, align 8
  %20 = load ptr, ptr %10, align 8
  %21 = load i32, ptr @ett_lnet_nid, align 4
  %22 = call ptr @proto_item_add_subtree(ptr noundef %20, i32 noundef %21)
  store ptr %22, ptr %9, align 8
  %23 = load ptr, ptr %5, align 8
  %24 = load i32, ptr %7, align 4
  %25 = call i32 @tvb_get_ipv4(ptr noundef %23, i32 noundef %24)
  store i32 %25, ptr %11, align 4
  %26 = load ptr, ptr %9, align 8
  %27 = load i32, ptr @hf_lnet_nid_addr, align 4
  %28 = load ptr, ptr %5, align 8
  %29 = load i32, ptr %7, align 4
  %30 = call ptr @proto_tree_add_item(ptr noundef %26, i32 noundef %27, ptr noundef %28, i32 noundef %29, i32 noundef 4, i32 noundef -2147483648)
  %31 = load i32, ptr %7, align 4
  %32 = add i32 %31, 4
  store i32 %32, ptr %7, align 4
  %33 = load ptr, ptr %9, align 8
  %34 = load i32, ptr @hf_lnet_nid_interface, align 4
  %35 = load ptr, ptr %5, align 8
  %36 = load i32, ptr %7, align 4
  %37 = call ptr @proto_tree_add_item_ret_uint(ptr noundef %33, i32 noundef %34, ptr noundef %35, i32 noundef %36, i32 noundef 2, i32 noundef -2147483648, ptr noundef %12)
  %38 = load i32, ptr %7, align 4
  %39 = add i32 %38, 2
  store i32 %39, ptr %7, align 4
  %40 = load ptr, ptr %9, align 8
  %41 = load i32, ptr @hf_lnet_nid_lnet_type, align 4
  %42 = load ptr, ptr %5, align 8
  %43 = load i32, ptr %7, align 4
  %44 = call ptr @proto_tree_add_item_ret_uint(ptr noundef %40, i32 noundef %41, ptr noundef %42, i32 noundef %43, i32 noundef 2, i32 noundef -2147483648, ptr noundef %13)
  %45 = load i32, ptr %7, align 4
  %46 = add i32 %45, 2
  store i32 %46, ptr %7, align 4
  %47 = load i32, ptr %11, align 4
  %48 = icmp ne i32 %47, 0
  br i1 %48, label %49, label %55

49:                                               ; preds = %4
  call void @llvm.lifetime.start.p0(i64 24, ptr %14) #6
  call void @set_address(ptr noundef %14, i32 noundef 2, i32 noundef 4, ptr noundef %11)
  %50 = load ptr, ptr %10, align 8
  %51 = call ptr @address_to_name(ptr noundef %14)
  %52 = load i32, ptr %13, align 4
  %53 = call ptr @val_to_str(i32 noundef %52, ptr noundef @lndprotos, ptr noundef @.str.1)
  %54 = load i32, ptr %12, align 4
  call void (ptr, ptr, ...) @proto_item_append_text(ptr noundef %50, ptr noundef @.str, ptr noundef %51, ptr noundef %53, i32 noundef %54)
  call void @llvm.lifetime.end.p0(i64 24, ptr %14) #6
  br label %55

55:                                               ; preds = %49, %4
  %56 = load i32, ptr %7, align 4
  call void @llvm.lifetime.end.p0(i64 4, ptr %13) #6
  call void @llvm.lifetime.end.p0(i64 4, ptr %12) #6
  call void @llvm.lifetime.end.p0(i64 4, ptr %11) #6
  call void @llvm.lifetime.end.p0(i64 8, ptr %10) #6
  call void @llvm.lifetime.end.p0(i64 8, ptr %9) #6
  ret i32 %56
}