; Function Attrs: null_pointer_is_valid sspstrong uwtable
define hidden noundef i32 @lnet_dissect_struct_nid(ptr noundef %0, ptr noundef %1, i32 noundef %2, i32 noundef %3) local_unnamed_addr #0 {
  %5 = alloca i32, align 4
  %6 = alloca i32, align 4
  %7 = alloca i32, align 4
  %8 = alloca %struct._address, align 8
  call void @llvm.lifetime.start.p0(i64 4, ptr nonnull %5) #5
  call void @llvm.lifetime.start.p0(i64 4, ptr nonnull %6) #5
  call void @llvm.lifetime.start.p0(i64 4, ptr nonnull %7) #5
  %9 = tail call ptr @proto_tree_add_item(ptr noundef %1, i32 noundef %3, ptr noundef %0, i32 noundef %2, i32 noundef 8, i32 noundef 0)
  %10 = load i32, ptr @ett_lnet_nid, align 4
  %11 = tail call ptr @proto_item_add_subtree(ptr noundef %9, i32 noundef %10)
  %12 = tail call i32 @tvb_get_ipv4(ptr noundef %0, i32 noundef %2)
  store i32 %12, ptr %5, align 4
  %13 = load i32, ptr @hf_lnet_nid_addr, align 4
  %14 = tail call ptr @proto_tree_add_item(ptr noundef %11, i32 noundef %13, ptr noundef %0, i32 noundef %2, i32 noundef 4, i32 noundef -2147483648)
  %15 = add i32 %2, 4
  %16 = load i32, ptr @hf_lnet_nid_interface, align 4
  %17 = call ptr @proto_tree_add_item_ret_uint(ptr noundef %11, i32 noundef %16, ptr noundef %0, i32 noundef %15, i32 noundef 2, i32 noundef -2147483648, ptr noundef nonnull %6)
  %18 = add i32 %2, 6
  %19 = load i32, ptr @hf_lnet_nid_lnet_type, align 4
  %20 = call ptr @proto_tree_add_item_ret_uint(ptr noundef %11, i32 noundef %19, ptr noundef %0, i32 noundef %18, i32 noundef 2, i32 noundef -2147483648, ptr noundef nonnull %7)
  %.not = icmp eq i32 %12, 0
  br i1 %.not, label %29, label %21

21:                                               ; preds = %4
  call void @llvm.lifetime.start.p0(i64 24, ptr nonnull %8) #5
  store i32 2, ptr %8, align 8
  %22 = getelementptr inbounds nuw i8, ptr %8, i64 4
  store i32 4, ptr %22, align 4
  %23 = getelementptr inbounds nuw i8, ptr %8, i64 8
  store ptr %5, ptr %23, align 8
  %24 = getelementptr inbounds nuw i8, ptr %8, i64 16
  store ptr null, ptr %24, align 8
  %25 = call ptr @address_to_name(ptr noundef nonnull %8)
  %26 = load i32, ptr %7, align 4
  %27 = call ptr @val_to_str(i32 noundef %26, ptr noundef nonnull @lndprotos, ptr noundef nonnull @.str.1)
  %28 = load i32, ptr %6, align 4
  call void (ptr, ptr, ...) @proto_item_append_text(ptr noundef %9, ptr noundef nonnull @.str, ptr noundef %25, ptr noundef %27, i32 noundef %28)
  call void @llvm.lifetime.end.p0(i64 24, ptr nonnull %8) #5
  br label %29

29:                                               ; preds = %21, %4
  %30 = add i32 %2, 8
  call void @llvm.lifetime.end.p0(i64 4, ptr nonnull %7) #5
  call void @llvm.lifetime.end.p0(i64 4, ptr nonnull %6) #5
  call void @llvm.lifetime.end.p0(i64 4, ptr nonnull %5) #5
  ret i32 %30
}